(dp0
S'eventCounter'
p1
I1
sS'matrixClock'
p2
(lp3
(lp4
I0
aI3
aI0
aI0
aa(lp5
I0
aI3
aI0
aI0
aa(lp6
I0
aI0
aI0
aI0
aa(lp7
I0
aI0
aI0
aI0
aasS'blockedUsers'
p8
(lp9
sS'eventLog'
p10
(lp11
(S'tweet'
p12
S'Hi Alice V3'
p13
I1
I1
S'2017-11-27 15:49:33'
p14
tp15
a(S'tweet'
p16
S'Hi Alice V3'
p17
I1
I1
S'2017-11-27 15:49:33'
p18
tp19
a(S'tweet'
p20
S'hi'
p21
I2
I1
S'2017-11-27 15:51:06'
p22
tp23
a(S'tweet'
p24
S'Testing Testing '
p25
I3
I1
S'2017-11-27 15:51:23'
p26
tp27
as.